; Function Attrs: mustprogress uwtable
define noundef i32 @_ZN11floatbuffer4initEii(ptr nocapture noundef nonnull align 8 dereferenceable(32) %0, i32 noundef %1, i32 noundef %2) local_unnamed_addr #9 align 2 personality ptr @__gxx_personality_v0 {
  %4 = alloca %class.QString, align 8
  %5 = load ptr, ptr %0, align 8
  %.not = icmp eq ptr %5, null
  %6 = getelementptr inbounds i8, ptr %0, i64 16
  %7 = load i32, ptr %6, align 8
  %.not5 = icmp eq i32 %7, -1
  %or.cond = select i1 %.not, i1 true, i1 %.not5
  br i1 %or.cond, label %8, label %23

8:                                                ; preds = %3
  %9 = getelementptr inbounds i8, ptr %0, i64 8
  store i32 %1, ptr %9, align 8
  %10 = getelementptr inbounds i8, ptr %0, i64 12
  store i32 %2, ptr %10, align 4
  %11 = mul nsw i32 %2, %1
  %12 = zext nneg i32 %11 to i64
  %13 = icmp slt i32 %11, 0
  %14 = shl nuw nsw i64 %12, 2
  %15 = select i1 %13, i64 -1, i64 %14
  %16 = tail call noalias noundef nonnull ptr @_Znam(i64 noundef %15) #34
  store ptr %16, ptr %0, align 8
  store i32 1, ptr %6, align 8
  %17 = getelementptr inbounds i8, ptr %0, i64 24
  call void @llvm.lifetime.start.p0(i64 8, ptr nonnull %4)
  call void @_ZN7QString15fromUtf8_helperEPKci(ptr dead_on_unwind nonnull writable sret(%class.QString) align 8 %4, ptr noundef nonnull @.str.6, i32 noundef 4)
  %18 = load ptr, ptr %17, align 8
  %19 = load ptr, ptr %4, align 8
  store ptr %19, ptr %17, align 8
  store ptr %18, ptr %4, align 8
  %20 = load atomic i32, ptr %18 monotonic, align 4
  switch i32 %20, label %_ZN9QtPrivate8RefCount5derefEv.exit.i.i [
    i32 0, label %_ZN9QtPrivate8RefCount5derefEv.exit.thread2.i.i
    i32 -1, label %_ZN7QStringaSEPKc.exit
  ]

_ZN9QtPrivate8RefCount5derefEv.exit.i.i:          ; preds = %8
  %21 = atomicrmw sub ptr %18, i32 1 seq_cst, align 4
  %.not.i.i = icmp eq i32 %21, 1
  br i1 %.not.i.i, label %_ZN9QtPrivate8RefCount5derefEv.exit._ZN9QtPrivate8RefCount5derefEv.exit.thread2_crit_edge.i.i, label %_ZN7QStringaSEPKc.exit

_ZN9QtPrivate8RefCount5derefEv.exit._ZN9QtPrivate8RefCount5derefEv.exit.thread2_crit_edge.i.i: ; preds = %_ZN9QtPrivate8RefCount5derefEv.exit.i.i
  %.pre.i.i = load ptr, ptr %4, align 8
  br label %_ZN9QtPrivate8RefCount5derefEv.exit.thread2.i.i

_ZN9QtPrivate8RefCount5derefEv.exit.thread2.i.i:  ; preds = %_ZN9QtPrivate8RefCount5derefEv.exit._ZN9QtPrivate8RefCount5derefEv.exit.thread2_crit_edge.i.i, %8
  %22 = phi ptr [ %.pre.i.i, %_ZN9QtPrivate8RefCount5derefEv.exit._ZN9QtPrivate8RefCount5derefEv.exit.thread2_crit_edge.i.i ], [ %18, %8 ]
  call void @_ZN10QArrayData10deallocateEPS_mm(ptr noundef %22, i64 noundef 2, i64 noundef 8) #31
  br label %_ZN7QStringaSEPKc.exit

_ZN7QStringaSEPKc.exit:                           ; preds = %8, %_ZN9QtPrivate8RefCount5derefEv.exit.i.i, %_ZN9QtPrivate8RefCount5derefEv.exit.thread2.i.i
  call void @llvm.lifetime.end.p0(i64 8, ptr nonnull %4)
  br label %23

23:                                               ; preds = %3, %_ZN7QStringaSEPKc.exit
  %.0 = phi i32 [ 1, %_ZN7QStringaSEPKc.exit ], [ -1, %3 ]
  ret i32 %.0
}